Certificate:
    Data:
        Version: 1 (0x0)
        Serial Number:
            b9:96:37:de:d5:b1:d8:e8
    Signature Algorithm: sha256WithRSAEncryption
        Issuer: CN=localhost
        Validity
            Not Before: Mar 28 10:19:33 2023 GMT
            Not After : Apr 27 10:19:33 2023 GMT
        Subject: CN=localhost
        Subject Public Key Info:
            Public Key Algorithm: rsaEncryption
                RSA Public-Key: (2048 bit)
                Modulus:
                    00:9c:58:25:12:3e:ae:7f:dd:f2:dd:95:1b:cb:ce:
                    ea:3f:29:0e:1f:fa:9c:cc:c3:19:08:85:3d:09:e7:
                    01:3d:be:95:ab:95:37:fa:5d:40:8e:fb:8f:d7:81:
                    74:8f:36:a8:d3:39:00:8d:3b:c0:7e:88:5f:19:19:
                    12:1a:e8:a2:e7:18:87:3a:be:0f:f3:70:0f:a5:9e:
                    2e:db:52:15:5b:4c:c6:c3:2c:4a:bc:48:24:91:3f:
                    f9:0d:5a:55:4e:c8:2c:71:51:76:93:a1:ee:ca:45:
                    18:55:9e:c7:38:2f:29:b7:77:cd:43:94:90:ef:6c:
                    da:3e:b4:59:61:8d:5d:ba:35:5e:33:4e:d5:04:5f:
                    f9:b3:14:a6:d0:4b:e6:80:54:4a:ca:0a:69:f8:a0:
                    90:fc:03:75:5c:ce:36:ac:9e:9c:59:a7:db:b7:ef:
                    84:24:16:73:11:c3:b1:6b:2f:66:44:ae:5e:fb:80:
                    d5:54:14:d3:e3:84:d3:ce:3f:1f:e1:a9:49:24:d8:
                    6b:ea:5d:19:41:b2:47:42:99:0c:b8:9f:80:d3:e4:
                    3f:0c:f2:6d:a0:af:cb:fe:e5:75:a0:77:81:07:f2:
                    05:90:2b:c5:bc:7d:b5:7b:32:0c:ed:05:65:83:5a:
                    bc:64:f4:c6:46:26:fd:da:79:82:6a:28:c3:4b:f9:
                    98:67
                Exponent: 65537 (0x10001)
    Signature Algorithm: sha256WithRSAEncryption
         62:fc:a3:c6:ff:3d:09:0b:af:3e:ca:06:2a:c0:2f:d5:1e:d8:
         3f:85:ca:11:88:e6:52:e1:b1:91:3a:84:7a:31:6c:ab:16:a0:
         4c:24:38:1c:b0:52:db:7d:2f:8a:80:2e:4a:bc:41:1a:ce:f9:
         0b:d2:92:c7:c6:fd:51:03:f0:9c:7c:d9:af:80:ad:84:66:42:
         86:88:c0:c0:df:54:a6:08:a8:b2:fa:b1:15:d9:96:bc:41:b0:
         3c:cc:db:fb:09:14:74:8f:90:3a:11:f5:e4:c4:64:a6:dd:2f:
         f8:16:7f:c3:7d:a3:6f:0d:63:1c:6f:22:d5:3a:b7:84:47:41:
         26:5c:c4:33:ab:d8:57:1e:97:e6:a2:b4:f6:cd:e0:d6:28:bf:
         ac:0d:c1:ba:7d:ad:9c:df:6f:e0:ef:4b:bf:f9:00:2f:ad:c2:
         42:db:a3:12:d5:30:16:57:7a:a8:e9:97:81:13:f7:c9:0c:65:
         12:a2:92:e9:b4:b6:2b:69:52:64:c1:9c:5b:a3:80:6b:12:ab:
         2f:ec:3f:c7:6a:ae:55:98:df:1b:56:83:d8:25:23:ee:bc:e3:
         31:e2:f7:13:c7:4c:8a:4e:2a:81:bc:b3:a8:b1:46:3e:07:58:
         a2:16:44:e3:b7:10:94:d2:f9:51:ce:d3:4a:53:a3:fc:fb:65:
         48:c7:26:cd
-----BEGIN CERTIFICATE-----
MIICpDCCAYwCCQC5ljfe1bHY6DANBgkqhkiG9w0BAQsFADAUMRIwEAYDVQQDDAls
b2NhbGhvc3QwHhcNMjMwMzI4MTAxOTMzWhcNMjMwNDI3MTAxOTMzWjAUMRIwEAYD
VQQDDAlsb2NhbGhvc3QwggEiMA0GCSqGSIb3DQEBAQUAA4IBDwAwggEKAoIBAQCc
WCUSPq5/3fLdlRvLzuo/KQ4f+pzMwxkIhT0J5wE9vpWrlTf6XUCO+4/XgXSPNqjT
OQCNO8B+iF8ZGRIa6KLnGIc6vg/zcA+lni7bUhVbTMbDLEq8SCSRP/kNWlVOyCxx
UXaToe7KRRhVnsc4Lym3d81DlJDvbNo+tFlhjV26NV4zTtUEX/mzFKbQS+aAVErK
Cmn4oJD8A3VczjasnpxZp9u374QkFnMRw7FrL2ZErl77gNVUFNPjhNPOPx/hqUkk
2GvqXRlBskdCmQy4n4DT5D8M8m2gr8v+5XWgd4EH8gWQK8W8fbV7MgztBWWDWrxk
9MZGJv3aeYJqKMNL+ZhnAgMBAAEwDQYJKoZIhvcNAQELBQADggEBAGL8o8b/PQkL
rz7KBirAL9Ue2D+FyhGI5lLhsZE6hHoxbKsWoEwkOBywUtt9L4qALkq8QRrO+QvS
ksfG/VED8Jx82a+ArYRmQoaIwMDfVKYIqLL6sRXZlrxBsDzM2/sJFHSPkDoR9eTE
ZKbdL/gWf8N9o28NYxxvItU6t4RHQSZcxDOr2Fcel+aitPbN4NYov6wNwbp9rZzf
b+DvS7/5AC+twkLboxLVMBZXeqjpl4ET98kMZRKikum0titpUmTBnFujgGsSqy/s
P8dqrlWY3xtWg9glI+684zHi9xPHTIpOKoG8s6ixRj4HWKIWROO3EJTS+VHO00pT
o/z7ZUjHJs0=
-----END CERTIFICATE-----
